; Function Attrs: nounwind uwtable
define internal zeroext range(i8 0, 2) i8 @matchBreakpoint(ptr noundef %0, ptr nocapture noundef readonly %1, ptr nocapture noundef readonly %2) #0 {
  %4 = getelementptr inbounds i8, ptr %1, i64 48
  %5 = load i32, ptr %4, align 8
  %6 = icmp sgt i32 %5, 0
  br i1 %6, label %.lr.ph, label %._crit_edge

.lr.ph:                                           ; preds = %3
  %7 = getelementptr inbounds i8, ptr %1, i64 56
  %8 = getelementptr inbounds i8, ptr %2, i64 8
  %9 = getelementptr inbounds i8, ptr %2, i64 16
  br label %10

10:                                               ; preds = %.lr.ph, %28
  %11 = phi i32 [ %5, %.lr.ph ], [ %29, %28 ]
  %.01518 = phi i32 [ 0, %.lr.ph ], [ %30, %28 ]
  %.01617 = phi ptr [ %7, %.lr.ph ], [ %31, %28 ]
  %12 = load i8, ptr %.01617, align 8
  %cond = icmp eq i8 %12, 7
  br i1 %cond, label %13, label %28

13:                                               ; preds = %10
  %14 = getelementptr inbounds i8, ptr %.01617, i64 8
  %15 = getelementptr inbounds i8, ptr %.01617, i64 16
  %16 = load ptr, ptr %15, align 8
  %17 = load ptr, ptr %8, align 8
  %18 = icmp eq ptr %16, %17
  br i1 %18, label %19, label %28

19:                                               ; preds = %13
  %20 = getelementptr inbounds i8, ptr %.01617, i64 24
  %21 = load i64, ptr %20, align 8
  %22 = load i64, ptr %9, align 8
  %23 = icmp eq i64 %21, %22
  br i1 %23, label %24, label %28

24:                                               ; preds = %19
  %25 = load ptr, ptr %14, align 8
  %26 = load ptr, ptr %2, align 8
  %27 = tail call zeroext i8 @isSameObject(ptr noundef %0, ptr noundef %25, ptr noundef %26) #6
  %.not = icmp eq i8 %27, 0
  br i1 %.not, label %._crit_edge21, label %._crit_edge

._crit_edge21:                                    ; preds = %24
  %.pre = load i32, ptr %4, align 8
  br label %28

28:                                               ; preds = %._crit_edge21, %10, %19, %13
  %29 = phi i32 [ %.pre, %._crit_edge21 ], [ %11, %10 ], [ %11, %19 ], [ %11, %13 ]
  %30 = add nuw nsw i32 %.01518, 1
  %31 = getelementptr inbounds i8, ptr %.01617, i64 32
  %32 = icmp slt i32 %30, %29
  br i1 %32, label %10, label %._crit_edge, !llvm.loop !12

._crit_edge:                                      ; preds = %24, %28, %3
  %.0 = phi i8 [ 0, %3 ], [ 0, %28 ], [ 1, %24 ]
  ret i8 %.0
}